target datalayout = "e-m:e-p270:32:32-p271:32:32-p272:64:64-i64:64-i128:128-f80:128-n8:16:32:64-S128"
target triple = "x86_64-pc-linux-gnu"

%union.SourceSpan = type { i64 }
%struct.GenContext_ = type { i8, ptr, ptr, ptr, ptr, ptr, ptr, ptr, ptr, ptr, ptr, ptr, ptr, ptr, ptr, ptr, ptr, ptr, ptr, ptr, ptr, ptr, ptr, ptr, ptr, ptr, ptr, ptr, ptr, ptr, ptr, ptr, ptr, %struct.anon.85, i32, i32, %struct.DebugContext, ptr, ptr, ptr, %struct.BEValue, i8, %union.SourceSpan, ptr, ptr, ptr, ptr }
%struct.anon.85 = type { ptr, ptr, ptr }
%struct.DebugContext = type { i16, ptr, ptr, %struct.DebugFile_, ptr, ptr, ptr, ptr }
%struct.DebugFile_ = type { i16, ptr }
%struct.BEValue = type { i8, i32, ptr, ptr, ptr }
%struct.VHeader_ = type { i32, i32, [0 x i8] }

@.str.6 = private unnamed_addr constant [7 x i8] c".list$\00", align 1
@.str.7 = private unnamed_addr constant [10 x i8] c"__DATA,__\00", align 1

; Function Attrs: nounwind uwtable
define dso_local i32 @llvm_abi_alignment(ptr noundef %0, ptr noundef %1) #0 {
  %3 = alloca ptr, align 8
  %4 = alloca ptr, align 8
  store ptr %0, ptr %3, align 8
  store ptr %1, ptr %4, align 8
  %5 = load ptr, ptr %3, align 8
  %6 = getelementptr inbounds %struct.GenContext_, ptr %5, i32 0, i32 4
  %7 = load ptr, ptr %6, align 8
  %8 = load ptr, ptr %4, align 8
  %9 = call i32 @LLVMABIAlignmentOfType(ptr noundef %7, ptr noundef %8)
  ret i32 %9
}

; Function Attrs: nounwind uwtable
define dso_local void @llvm_emit_macho_xtor(ptr noundef %0, ptr noundef %1, ptr noundef %2) #0 {
  %4 = alloca i32, align 4
  %5 = alloca ptr, align 8
  %6 = alloca ptr, align 8
  %7 = alloca i32, align 4
  %8 = alloca ptr, align 8
  %9 = alloca ptr, align 8
  %10 = alloca ptr, align 8
  %11 = alloca ptr, align 8
  %12 = alloca ptr, align 8
  %13 = alloca i32, align 4
  %14 = alloca ptr, align 8
  %15 = alloca ptr, align 8
  store ptr %0, ptr %10, align 8
  store ptr %1, ptr %11, align 8
  store ptr %2, ptr %12, align 8
  %16 = load ptr, ptr %11, align 8
  store ptr %16, ptr %5, align 8
  %17 = load ptr, ptr %5, align 8
  %18 = icmp ne ptr %17, null
  br i1 %18, label %20, label %19

19:                                               ; preds = %3
  store i32 0, ptr %4, align 4
  br label %25

20:                                               ; preds = %3
  %21 = load ptr, ptr %5, align 8
  store ptr %21, ptr %6, align 8
  %22 = load ptr, ptr %6, align 8
  %23 = getelementptr inbounds %struct.VHeader_, ptr %22, i64 -1
  %24 = load i32, ptr %23, align 4
  store i32 %24, ptr %4, align 4
  br label %25

25:                                               ; preds = %20, %19
  %26 = load i32, ptr %4, align 4
  store i32 %26, ptr %13, align 4
  %27 = load i32, ptr %13, align 4
  %28 = icmp ne i32 %27, 0
  br i1 %28, label %30, label %29

29:                                               ; preds = %25
  br label %67

30:                                               ; preds = %25
  call void @scratch_buffer_clear()
  call void @scratch_buffer_append(ptr noundef @.str.6)
  %31 = load ptr, ptr %12, align 8
  call void @scratch_buffer_append(ptr noundef %31)
  %32 = load ptr, ptr %10, align 8
  %33 = getelementptr inbounds %struct.GenContext_, ptr %32, i32 0, i32 29
  %34 = load ptr, ptr %33, align 8
  %35 = load ptr, ptr %11, align 8
  %36 = load ptr, ptr %11, align 8
  store ptr %36, ptr %8, align 8
  %37 = load ptr, ptr %8, align 8
  %38 = icmp ne ptr %37, null
  br i1 %38, label %40, label %39

39:                                               ; preds = %30
  store i32 0, ptr %7, align 4
  br label %45

40:                                               ; preds = %30
  %41 = load ptr, ptr %8, align 8
  store ptr %41, ptr %9, align 8
  %42 = load ptr, ptr %9, align 8
  %43 = getelementptr inbounds %struct.VHeader_, ptr %42, i64 -1
  %44 = load i32, ptr %43, align 4
  store i32 %44, ptr %7, align 4
  br label %45

45:                                               ; preds = %40, %39
  %46 = load i32, ptr %7, align 4
  %47 = call ptr @LLVMConstArray(ptr noundef %34, ptr noundef %35, i32 noundef %46)
  store ptr %47, ptr %14, align 8
  %48 = load ptr, ptr %10, align 8
  %49 = getelementptr inbounds %struct.GenContext_, ptr %48, i32 0, i32 1
  %50 = load ptr, ptr %49, align 8
  %51 = load ptr, ptr %14, align 8
  %52 = call ptr @LLVMTypeOf(ptr noundef %51)
  %53 = call ptr @scratch_buffer_to_string()
  %54 = call ptr @LLVMAddGlobal(ptr noundef %50, ptr noundef %52, ptr noundef %53)
  store ptr %54, ptr %15, align 8
  call void @scratch_buffer_clear()
  call void @scratch_buffer_append(ptr noundef @.str.7)
  %55 = load ptr, ptr %12, align 8
  call void @scratch_buffer_append(ptr noundef %55)
  %56 = load ptr, ptr %15, align 8
  call void @LLVMSetLinkage(ptr noundef %56, i32 noundef 8)
  %57 = load ptr, ptr %15, align 8
  %58 = load ptr, ptr %14, align 8
  call void @LLVMSetInitializer(ptr noundef %57, ptr noundef %58)
  %59 = load ptr, ptr %15, align 8
  %60 = call ptr @scratch_buffer_to_string()
  call void @LLVMSetSection(ptr noundef %59, ptr noundef %60)
  %61 = load ptr, ptr %15, align 8
  %62 = load ptr, ptr %10, align 8
  %63 = load ptr, ptr %10, align 8
  %64 = getelementptr inbounds %struct.GenContext_, ptr %63, i32 0, i32 29
  %65 = load ptr, ptr %64, align 8
  %66 = call i32 @llvm_abi_alignment(ptr noundef %62, ptr noundef %65)
  call void @LLVMSetAlignment(ptr noundef %61, i32 noundef %66)
  br label %67

67:                                               ; preds = %45, %29
  ret void
}