; Function Attrs: nounwind uwtable
define dso_local void @llvm_emit_macho_xtor(ptr nocapture noundef readonly %0, ptr noundef %1, ptr noundef %2) local_unnamed_addr #0 {
  %.not = icmp eq ptr %1, null
  br i1 %.not, label %.critedge, label %4

4:                                                ; preds = %3
  %5 = getelementptr inbounds i8, ptr %1, i64 -8
  %6 = load i32, ptr %5, align 4
  %7 = icmp eq i32 %6, 0
  br i1 %7, label %.critedge, label %8

8:                                                ; preds = %4
  tail call void @scratch_buffer_clear() #10
  tail call void @scratch_buffer_append(ptr noundef nonnull @.str.6) #10
  tail call void @scratch_buffer_append(ptr noundef %2) #10
  %9 = getelementptr inbounds i8, ptr %0, i64 232
  %10 = load ptr, ptr %9, align 8
  %11 = load i32, ptr %5, align 4
  %12 = tail call ptr @LLVMConstArray(ptr noundef %10, ptr noundef nonnull %1, i32 noundef %11) #10
  %13 = getelementptr inbounds i8, ptr %0, i64 8
  %14 = load ptr, ptr %13, align 8
  %15 = tail call ptr @LLVMTypeOf(ptr noundef %12) #10
  %16 = tail call ptr @scratch_buffer_to_string() #10
  %17 = tail call ptr @LLVMAddGlobal(ptr noundef %14, ptr noundef %15, ptr noundef %16) #10
  tail call void @scratch_buffer_clear() #10
  tail call void @scratch_buffer_append(ptr noundef nonnull @.str.7) #10
  tail call void @scratch_buffer_append(ptr noundef %2) #10
  tail call void @LLVMSetLinkage(ptr noundef %17, i32 noundef 8) #10
  tail call void @LLVMSetInitializer(ptr noundef %17, ptr noundef %12) #10
  %18 = tail call ptr @scratch_buffer_to_string() #10
  tail call void @LLVMSetSection(ptr noundef %17, ptr noundef %18) #10
  %19 = load ptr, ptr %9, align 8
  %20 = getelementptr inbounds i8, ptr %0, i64 32
  %21 = load ptr, ptr %20, align 8
  %22 = tail call i32 @LLVMABIAlignmentOfType(ptr noundef %21, ptr noundef %19) #10
  tail call void @LLVMSetAlignment(ptr noundef %17, i32 noundef %22) #10
  br label %.critedge

.critedge:                                        ; preds = %3, %4, %8
  ret void
}